target datalayout = "e-m:e-p270:32:32-p271:32:32-p272:64:64-i64:64-i128:128-f80:128-n8:16:32:64-S128"
target triple = "x86_64-pc-linux-gnu"

%struct.Vec_Wrd_t_ = type { i32, i32, ptr }

; Function Attrs: nounwind uwtable
define internal void @Abc_TtSharp(ptr noundef %0, ptr noundef %1, ptr noundef %2, i32 noundef %3) #0 {
  %5 = alloca ptr, align 8
  %6 = alloca ptr, align 8
  %7 = alloca ptr, align 8
  %8 = alloca i32, align 4
  %9 = alloca i32, align 4
  store ptr %0, ptr %5, align 8
  store ptr %1, ptr %6, align 8
  store ptr %2, ptr %7, align 8
  store i32 %3, ptr %8, align 4
  store i32 0, ptr %9, align 4
  br label %10

10:                                               ; preds = %31, %4
  %11 = load i32, ptr %9, align 4
  %12 = load i32, ptr %8, align 4
  %13 = icmp slt i32 %11, %12
  br i1 %13, label %14, label %34

14:                                               ; preds = %10
  %15 = load ptr, ptr %6, align 8
  %16 = load i32, ptr %9, align 4
  %17 = sext i32 %16 to i64
  %18 = getelementptr inbounds i64, ptr %15, i64 %17
  %19 = load i64, ptr %18, align 8
  %20 = load ptr, ptr %7, align 8
  %21 = load i32, ptr %9, align 4
  %22 = sext i32 %21 to i64
  %23 = getelementptr inbounds i64, ptr %20, i64 %22
  %24 = load i64, ptr %23, align 8
  %25 = xor i64 %24, -1
  %26 = and i64 %19, %25
  %27 = load ptr, ptr %5, align 8
  %28 = load i32, ptr %9, align 4
  %29 = sext i32 %28 to i64
  %30 = getelementptr inbounds i64, ptr %27, i64 %29
  store i64 %26, ptr %30, align 8
  br label %31

31:                                               ; preds = %14
  %32 = load i32, ptr %9, align 4
  %33 = add nsw i32 %32, 1
  store i32 %33, ptr %9, align 4
  br label %10, !llvm.loop !19

34:                                               ; preds = %10
  ret void
}

; Function Attrs: nounwind uwtable
define internal void @Abc_TtOr(ptr noundef %0, ptr noundef %1, ptr noundef %2, i32 noundef %3) #0 {
  %5 = alloca ptr, align 8
  %6 = alloca ptr, align 8
  %7 = alloca ptr, align 8
  %8 = alloca i32, align 4
  %9 = alloca i32, align 4
  store ptr %0, ptr %5, align 8
  store ptr %1, ptr %6, align 8
  store ptr %2, ptr %7, align 8
  store i32 %3, ptr %8, align 4
  store i32 0, ptr %9, align 4
  br label %10

10:                                               ; preds = %30, %4
  %11 = load i32, ptr %9, align 4
  %12 = load i32, ptr %8, align 4
  %13 = icmp slt i32 %11, %12
  br i1 %13, label %14, label %33

14:                                               ; preds = %10
  %15 = load ptr, ptr %6, align 8
  %16 = load i32, ptr %9, align 4
  %17 = sext i32 %16 to i64
  %18 = getelementptr inbounds i64, ptr %15, i64 %17
  %19 = load i64, ptr %18, align 8
  %20 = load ptr, ptr %7, align 8
  %21 = load i32, ptr %9, align 4
  %22 = sext i32 %21 to i64
  %23 = getelementptr inbounds i64, ptr %20, i64 %22
  %24 = load i64, ptr %23, align 8
  %25 = or i64 %19, %24
  %26 = load ptr, ptr %5, align 8
  %27 = load i32, ptr %9, align 4
  %28 = sext i32 %27 to i64
  %29 = getelementptr inbounds i64, ptr %26, i64 %28
  store i64 %25, ptr %29, align 8
  br label %30

30:                                               ; preds = %14
  %31 = load i32, ptr %9, align 4
  %32 = add nsw i32 %31, 1
  store i32 %32, ptr %9, align 4
  br label %10, !llvm.loop !18

33:                                               ; preds = %10
  ret void
}

; Function Attrs: nounwind uwtable
define internal ptr @Vec_WrdEntryP(ptr noundef %0, i32 noundef %1) #0 {
  %3 = alloca ptr, align 8
  %4 = alloca i32, align 4
  store ptr %0, ptr %3, align 8
  store i32 %1, ptr %4, align 4
  %5 = load ptr, ptr %3, align 8
  %6 = getelementptr inbounds %struct.Vec_Wrd_t_, ptr %5, i32 0, i32 2
  %7 = load ptr, ptr %6, align 8
  %8 = load i32, ptr %4, align 4
  %9 = sext i32 %8 to i64
  %10 = getelementptr inbounds i64, ptr %7, i64 %9
  ret ptr %10
}

; Function Attrs: nounwind uwtable
define internal i32 @Abc_Truth6WordNum(i32 noundef %0) #0 {
  %2 = alloca i32, align 4
  store i32 %0, ptr %2, align 4
  %3 = load i32, ptr %2, align 4
  %4 = icmp sle i32 %3, 6
  br i1 %4, label %5, label %6

5:                                                ; preds = %1
  br label %10

6:                                                ; preds = %1
  %7 = load i32, ptr %2, align 4
  %8 = sub nsw i32 %7, 6
  %9 = shl i32 1, %8
  br label %10

10:                                               ; preds = %6, %5
  %11 = phi i32 [ 1, %5 ], [ %9, %6 ]
  ret i32 %11
}

; Function Attrs: nounwind uwtable
define ptr @Gia_ManDeriveBidec(ptr noundef %0, i32 noundef %1) #0 {
  %3 = alloca ptr, align 8
  %4 = alloca i32, align 4
  %5 = alloca ptr, align 8
  %6 = alloca i32, align 4
  %7 = alloca [2 x ptr], align 16
  store ptr %0, ptr %3, align 8
  store i32 %1, ptr %4, align 4
  store ptr null, ptr %5, align 8
  %8 = load i32, ptr %4, align 4
  %9 = call i32 @Abc_Truth6WordNum(i32 noundef %8)
  store i32 %9, ptr %6, align 4
  %10 = getelementptr inbounds [2 x ptr], ptr %7, i64 0, i64 0
  %11 = load ptr, ptr %3, align 8
  %12 = load i32, ptr %6, align 4
  %13 = mul nsw i32 0, %12
  %14 = call ptr @Vec_WrdEntryP(ptr noundef %11, i32 noundef %13)
  store ptr %14, ptr %10, align 8
  %15 = getelementptr inbounds ptr, ptr %10, i64 1
  %16 = load ptr, ptr %3, align 8
  %17 = load i32, ptr %6, align 4
  %18 = mul nsw i32 1, %17
  %19 = call ptr @Vec_WrdEntryP(ptr noundef %16, i32 noundef %18)
  store ptr %19, ptr %15, align 8
  %20 = getelementptr inbounds [2 x ptr], ptr %7, i64 0, i64 0
  %21 = load ptr, ptr %20, align 16
  %22 = getelementptr inbounds [2 x ptr], ptr %7, i64 0, i64 0
  %23 = load ptr, ptr %22, align 16
  %24 = getelementptr inbounds [2 x ptr], ptr %7, i64 0, i64 1
  %25 = load ptr, ptr %24, align 8
  %26 = load i32, ptr %6, align 4
  call void @Abc_TtOr(ptr noundef %21, ptr noundef %23, ptr noundef %25, i32 noundef %26)
  %27 = getelementptr inbounds [2 x ptr], ptr %7, i64 0, i64 1
  %28 = load ptr, ptr %27, align 8
  %29 = getelementptr inbounds [2 x ptr], ptr %7, i64 0, i64 0
  %30 = load ptr, ptr %29, align 16
  %31 = load i32, ptr %4, align 4
  %32 = call ptr @Bdc_ManBidecResub(ptr noundef %28, ptr noundef %30, i32 noundef %31)
  store ptr %32, ptr %5, align 8
  %33 = getelementptr inbounds [2 x ptr], ptr %7, i64 0, i64 0
  %34 = load ptr, ptr %33, align 16
  %35 = getelementptr inbounds [2 x ptr], ptr %7, i64 0, i64 0
  %36 = load ptr, ptr %35, align 16
  %37 = getelementptr inbounds [2 x ptr], ptr %7, i64 0, i64 1
  %38 = load ptr, ptr %37, align 8
  %39 = load i32, ptr %6, align 4
  call void @Abc_TtSharp(ptr noundef %34, ptr noundef %36, ptr noundef %38, i32 noundef %39)
  %40 = load ptr, ptr %5, align 8
  ret ptr %40
}