; Function Attrs: nounwind uwtable
define ptr @Gia_ManDeriveBidec(ptr noundef readonly captures(none) %0, i32 noundef %1) local_unnamed_addr #2 {
  %3 = icmp slt i32 %1, 7
  %4 = add nsw i32 %1, -6
  %5 = shl nuw i32 1, %4
  %6 = select i1 %3, i32 1, i32 %5
  %7 = getelementptr i8, ptr %0, i64 8
  %.val14 = load ptr, ptr %7, align 8
  %8 = sext i32 %6 to i64
  %9 = getelementptr inbounds i64, ptr %.val14, i64 %8
  %10 = icmp sgt i32 %6, 0
  br i1 %10, label %.lr.ph.preheader.i, label %Abc_TtOr.exit.thread

Abc_TtOr.exit.thread:                             ; preds = %2
  %11 = tail call ptr @Bdc_ManBidecResub(ptr noundef nonnull %9, ptr noundef %.val14, i32 noundef %1) #14
  br label %Abc_TtSharp.exit

.lr.ph.preheader.i:                               ; preds = %2
  %wide.trip.count.i = zext nneg i32 %6 to i64
  br label %.lr.ph.i

.lr.ph.i:                                         ; preds = %.lr.ph.i, %.lr.ph.preheader.i
  %indvars.iv.i = phi i64 [ 0, %.lr.ph.preheader.i ], [ %indvars.iv.next.i, %.lr.ph.i ]
  %12 = getelementptr inbounds nuw i64, ptr %.val14, i64 %indvars.iv.i
  %13 = load i64, ptr %12, align 8
  %14 = getelementptr inbounds nuw i64, ptr %9, i64 %indvars.iv.i
  %15 = load i64, ptr %14, align 8
  %16 = or i64 %15, %13
  store i64 %16, ptr %12, align 8
  %indvars.iv.next.i = add nuw nsw i64 %indvars.iv.i, 1
  %exitcond.not.i = icmp eq i64 %indvars.iv.next.i, %wide.trip.count.i
  br i1 %exitcond.not.i, label %Abc_TtOr.exit, label %.lr.ph.i, !llvm.loop !16

Abc_TtOr.exit:                                    ; preds = %.lr.ph.i
  %17 = tail call ptr @Bdc_ManBidecResub(ptr noundef nonnull %9, ptr noundef nonnull %.val14, i32 noundef %1) #14
  br label %.lr.ph.i17

.lr.ph.i17:                                       ; preds = %.lr.ph.i17, %Abc_TtOr.exit
  %indvars.iv.i18 = phi i64 [ 0, %Abc_TtOr.exit ], [ %indvars.iv.next.i19, %.lr.ph.i17 ]
  %18 = getelementptr inbounds nuw i64, ptr %.val14, i64 %indvars.iv.i18
  %19 = load i64, ptr %18, align 8
  %20 = getelementptr inbounds nuw i64, ptr %9, i64 %indvars.iv.i18
  %21 = load i64, ptr %20, align 8
  %22 = xor i64 %21, -1
  %23 = and i64 %19, %22
  store i64 %23, ptr %18, align 8
  %indvars.iv.next.i19 = add nuw nsw i64 %indvars.iv.i18, 1
  %exitcond.not.i20 = icmp eq i64 %indvars.iv.next.i19, %wide.trip.count.i
  br i1 %exitcond.not.i20, label %Abc_TtSharp.exit, label %.lr.ph.i17, !llvm.loop !17

Abc_TtSharp.exit:                                 ; preds = %.lr.ph.i17, %Abc_TtOr.exit.thread
  %24 = phi ptr [ %11, %Abc_TtOr.exit.thread ], [ %17, %.lr.ph.i17 ]
  ret ptr %24
}